; ModuleID = '19/369.c'
source_filename = "19/369.c"
target datalayout = "e-m:e-p270:32:32-p271:32:32-p272:64:64-i64:64-f80:128-n8:16:32:64-S128"
target triple = "x86_64-pc-linux-gnu"

@.str = private unnamed_addr constant [3 x i8] c"%s\00", align 1
@.str.1 = private unnamed_addr constant [4 x i8] c" %s\00", align 1
@.str.2 = private unnamed_addr constant [2 x i8] c"\0A\00", align 1

; Function Attrs: noinline nounwind uwtable
define dso_local i32 @main() #0 {
  %1 = alloca i32, align 4
  %2 = alloca [100 x [100 x i8]], align 16
  %3 = alloca [1000 x i8], align 16
  %4 = alloca i32, align 4
  %5 = alloca i32, align 4
  %6 = alloca i32, align 4
  %7 = alloca i32, align 4
  %8 = alloca i32, align 4
  %9 = alloca [100 x i8], align 16
  %10 = alloca [100 x i8], align 16
  %11 = alloca i8*, align 8
  %12 = alloca i32, align 4
  store i32 0, i32* %1, align 4
  %13 = getelementptr inbounds [1000 x i8], [1000 x i8]* %3, i64 0, i64 0
  %14 = call i32 (i8*, ...) bitcast (i32 (...)* @gets to i32 (i8*, ...)*)(i8* %13)
  %15 = getelementptr inbounds [1000 x i8], [1000 x i8]* %3, i64 0, i64 0
  %16 = call i64 @strlen(i8* %15) #4
  %17 = trunc i64 %16 to i32
  store i32 %17, i32* %4, align 4
  store i32 0, i32* %6, align 4
  store i32 0, i32* %5, align 4
  br label %18

18:                                               ; preds = %89, %0
  %19 = load i32, i32* %5, align 4
  %20 = load i32, i32* %4, align 4
  %21 = add nsw i32 %20, 1
  %22 = icmp slt i32 %19, %21
  br i1 %22, label %23, label %92

23:                                               ; preds = %18
  %24 = load i32, i32* %5, align 4
  %25 = sext i32 %24 to i64
  %26 = getelementptr inbounds [1000 x i8], [1000 x i8]* %3, i64 0, i64 %25
  %27 = load i8, i8* %26, align 1
  %28 = sext i8 %27 to i32
  %29 = icmp eq i32 %28, 32
  br i1 %29, label %37, label %30

30:                                               ; preds = %23
  %31 = load i32, i32* %5, align 4
  %32 = sext i32 %31 to i64
  %33 = getelementptr inbounds [1000 x i8], [1000 x i8]* %3, i64 0, i64 %32
  %34 = load i8, i8* %33, align 1
  %35 = sext i8 %34 to i32
  %36 = icmp eq i32 %35, 0
  br i1 %36, label %37, label %88

37:                                               ; preds = %30, %23
  store i32 0, i32* %8, align 4
  %38 = load i32, i32* %5, align 4
  %39 = sub nsw i32 %38, 1
  store i32 %39, i32* %7, align 4
  br label %40

40:                                               ; preds = %52, %37
  %41 = load i32, i32* %7, align 4
  %42 = icmp sge i32 %41, 0
  br i1 %42, label %43, label %55

43:                                               ; preds = %40
  %44 = load i32, i32* %7, align 4
  %45 = sext i32 %44 to i64
  %46 = getelementptr inbounds [1000 x i8], [1000 x i8]* %3, i64 0, i64 %45
  %47 = load i8, i8* %46, align 1
  %48 = sext i8 %47 to i32
  %49 = icmp eq i32 %48, 32
  br i1 %49, label %50, label %51

50:                                               ; preds = %43
  br label %55

51:                                               ; preds = %43
  br label %52

52:                                               ; preds = %51
  %53 = load i32, i32* %7, align 4
  %54 = add nsw i32 %53, -1
  store i32 %54, i32* %7, align 4
  br label %40

55:                                               ; preds = %50, %40
  %56 = load i32, i32* %7, align 4
  %57 = add nsw i32 %56, 1
  store i32 %57, i32* %7, align 4
  br label %58

58:                                               ; preds = %75, %55
  %59 = load i32, i32* %7, align 4
  %60 = load i32, i32* %5, align 4
  %61 = icmp sle i32 %59, %60
  br i1 %61, label %62, label %78

62:                                               ; preds = %58
  %63 = load i32, i32* %7, align 4
  %64 = sext i32 %63 to i64
  %65 = getelementptr inbounds [1000 x i8], [1000 x i8]* %3, i64 0, i64 %64
  %66 = load i8, i8* %65, align 1
  %67 = load i32, i32* %6, align 4
  %68 = sext i32 %67 to i64
  %69 = getelementptr inbounds [100 x [100 x i8]], [100 x [100 x i8]]* %2, i64 0, i64 %68
  %70 = load i32, i32* %8, align 4
  %71 = sext i32 %70 to i64
  %72 = getelementptr inbounds [100 x i8], [100 x i8]* %69, i64 0, i64 %71
  store i8 %66, i8* %72, align 1
  %73 = load i32, i32* %8, align 4
  %74 = add nsw i32 %73, 1
  store i32 %74, i32* %8, align 4
  br label %75

75:                                               ; preds = %62
  %76 = load i32, i32* %7, align 4
  %77 = add nsw i32 %76, 1
  store i32 %77, i32* %7, align 4
  br label %58

78:                                               ; preds = %58
  %79 = load i32, i32* %6, align 4
  %80 = sext i32 %79 to i64
  %81 = getelementptr inbounds [100 x [100 x i8]], [100 x [100 x i8]]* %2, i64 0, i64 %80
  %82 = load i32, i32* %8, align 4
  %83 = sub nsw i32 %82, 1
  %84 = sext i32 %83 to i64
  %85 = getelementptr inbounds [100 x i8], [100 x i8]* %81, i64 0, i64 %84
  store i8 0, i8* %85, align 1
  %86 = load i32, i32* %6, align 4
  %87 = add nsw i32 %86, 1
  store i32 %87, i32* %6, align 4
  br label %88

88:                                               ; preds = %78, %30
  br label %89

89:                                               ; preds = %88
  %90 = load i32, i32* %5, align 4
  %91 = add nsw i32 %90, 1
  store i32 %91, i32* %5, align 4
  br label %18

92:                                               ; preds = %18
  %93 = getelementptr inbounds [100 x i8], [100 x i8]* %9, i64 0, i64 0
  %94 = call i32 (i8*, ...) bitcast (i32 (...)* @gets to i32 (i8*, ...)*)(i8* %93)
  %95 = getelementptr inbounds [100 x i8], [100 x i8]* %10, i64 0, i64 0
  %96 = call i32 (i8*, ...) bitcast (i32 (...)* @gets to i32 (i8*, ...)*)(i8* %95)
  store i32 0, i32* %12, align 4
  store i32 0, i32* %12, align 4
  br label %97

97:                                               ; preds = %115, %92
  %98 = load i32, i32* %12, align 4
  %99 = load i32, i32* %6, align 4
  %100 = icmp slt i32 %98, %99
  br i1 %100, label %101, label %118

101:                                              ; preds = %97
  %102 = load i32, i32* %12, align 4
  %103 = sext i32 %102 to i64
  %104 = getelementptr inbounds [100 x [100 x i8]], [100 x [100 x i8]]* %2, i64 0, i64 %103
  %105 = getelementptr inbounds [100 x i8], [100 x i8]* %104, i64 0, i64 0
  store i8* %105, i8** %11, align 8
  %106 = load i8*, i8** %11, align 8
  %107 = getelementptr inbounds [100 x i8], [100 x i8]* %9, i64 0, i64 0
  %108 = call i32 @strcmp(i8* %106, i8* %107) #4
  %109 = icmp eq i32 %108, 0
  br i1 %109, label %110, label %114

110:                                              ; preds = %101
  %111 = load i8*, i8** %11, align 8
  %112 = getelementptr inbounds [100 x i8], [100 x i8]* %10, i64 0, i64 0
  %113 = call i8* @strcpy(i8* %111, i8* %112) #5
  br label %114

114:                                              ; preds = %110, %101
  br label %115

115:                                              ; preds = %114
  %116 = load i32, i32* %12, align 4
  %117 = add nsw i32 %116, 1
  store i32 %117, i32* %12, align 4
  br label %97

118:                                              ; preds = %97
  %119 = getelementptr inbounds [100 x [100 x i8]], [100 x [100 x i8]]* %2, i64 0, i64 0
  %120 = getelementptr inbounds [100 x i8], [100 x i8]* %119, i64 0, i64 0
  %121 = call i32 (i8*, ...) @printf(i8* getelementptr inbounds ([3 x i8], [3 x i8]* @.str, i64 0, i64 0), i8* %120)
  store i32 1, i32* %5, align 4
  br label %122

122:                                              ; preds = %132, %118
  %123 = load i32, i32* %5, align 4
  %124 = load i32, i32* %6, align 4
  %125 = icmp slt i32 %123, %124
  br i1 %125, label %126, label %135

126:                                              ; preds = %122
  %127 = load i32, i32* %5, align 4
  %128 = sext i32 %127 to i64
  %129 = getelementptr inbounds [100 x [100 x i8]], [100 x [100 x i8]]* %2, i64 0, i64 %128
  %130 = getelementptr inbounds [100 x i8], [100 x i8]* %129, i64 0, i64 0
  %131 = call i32 (i8*, ...) @printf(i8* getelementptr inbounds ([4 x i8], [4 x i8]* @.str.1, i64 0, i64 0), i8* %130)
  br label %132

132:                                              ; preds = %126
  %133 = load i32, i32* %5, align 4
  %134 = add nsw i32 %133, 1
  store i32 %134, i32* %5, align 4
  br label %122

135:                                              ; preds = %122
  %136 = call i32 (i8*, ...) @printf(i8* getelementptr inbounds ([2 x i8], [2 x i8]* @.str.2, i64 0, i64 0))
  ret i32 0
}

declare dso_local i32 @gets(...) #1

; Function Attrs: nounwind readonly
declare dso_local i64 @strlen(i8*) #2

; Function Attrs: nounwind readonly
declare dso_local i32 @strcmp(i8*, i8*) #2

; Function Attrs: nounwind
declare dso_local i8* @strcpy(i8*, i8*) #3

declare dso_local i32 @printf(i8*, ...) #1


!llvm.module.flags = !{!0}
!llvm.ident = !{!1}

!0 = !{i32 1, !"wchar_size", i32 4}
!1 = !{!"clang version 10.0.0-4ubuntu1 "}
